target datalayout = "e-m:e-p270:32:32-p271:32:32-p272:64:64-i64:64-i128:128-f80:128-n8:16:32:64-S128"
target triple = "x86_64-pc-linux-gnu"

%struct._zend_refcounted_h = type { i32, %union.anon }
%union.anon = type { i32 }
%struct._zval_struct = type { %union._zend_value, %union.anon.0, %union.anon.3 }
%union._zend_value = type { i64 }
%union.anon.0 = type { i32 }
%union.anon.3 = type { i32 }
%struct._zend_generator = type { %struct._zend_object, ptr, ptr, %struct._zval_struct, %struct._zval_struct, %struct._zval_struct, ptr, i64, %struct._zval_struct, %struct._zend_generator_node, %struct._zend_execute_data, ptr, i8 }
%struct._zend_object = type { %struct._zend_refcounted_h, i32, i32, ptr, ptr, ptr, [1 x %struct._zval_struct] }
%struct._zend_generator_node = type { ptr, i32, %union.anon.4, %union.anon.5 }
%union.anon.4 = type { ptr }
%union.anon.5 = type { ptr }
%struct._zend_execute_data = type { ptr, ptr, ptr, ptr, %struct._zval_struct, ptr, ptr, ptr, ptr }
%struct._zend_refcounted = type { %struct._zend_refcounted_h }
%struct.anon.1 = type { i8, i8, %union.anon.2 }
%union.anon.2 = type { i16 }
%struct.anon.9 = type { i8, [3 x i8], i32, ptr, ptr, ptr, i32, i32, ptr, ptr, ptr, ptr, i32, ptr }

; Function Attrs: alwaysinline nounwind uwtable
define internal i32 @zend_gc_delref(ptr noundef %0) #2 {
  %2 = alloca ptr, align 8
  store ptr %0, ptr %2, align 8, !tbaa !113
  %3 = load ptr, ptr %2, align 8, !tbaa !113
  %4 = getelementptr inbounds nuw %struct._zend_refcounted_h, ptr %3, i32 0, i32 0
  %5 = load i32, ptr %4, align 4, !tbaa !115
  %6 = icmp ugt i32 %5, 0
  call void @llvm.assume(i1 %6)
  br label %7

7:                                                ; preds = %1
  br label %8

8:                                                ; preds = %7
  %9 = load ptr, ptr %2, align 8, !tbaa !113
  %10 = getelementptr inbounds nuw %struct._zend_refcounted_h, ptr %9, i32 0, i32 0
  %11 = load i32, ptr %10, align 4, !tbaa !115
  %12 = add i32 %11, -1
  store i32 %12, ptr %10, align 4, !tbaa !115
  ret i32 %12
}

; Function Attrs: alwaysinline nounwind uwtable
define internal zeroext i8 @zval_get_type(ptr noundef %0) #2 {
  %2 = alloca ptr, align 8
  store ptr %0, ptr %2, align 8, !tbaa !36
  %3 = load ptr, ptr %2, align 8, !tbaa !36
  %4 = getelementptr inbounds nuw %struct._zval_struct, ptr %3, i32 0, i32 1
  %5 = getelementptr inbounds nuw %struct.anon.1, ptr %4, i32 0, i32 0
  %6 = load i8, ptr %5, align 8, !tbaa !26
  ret i8 %6
}

; Function Attrs: alwaysinline nounwind uwtable
define internal void @zend_object_release(ptr noundef %0) #2 {
  %2 = alloca ptr, align 8
  store ptr %0, ptr %2, align 8, !tbaa !59
  %3 = load ptr, ptr %2, align 8, !tbaa !59
  %4 = getelementptr inbounds nuw %struct._zend_object, ptr %3, i32 0, i32 0
  %5 = call i32 @zend_gc_delref(ptr noundef %4)
  %6 = icmp eq i32 %5, 0
  br i1 %6, label %7, label %9

7:                                                ; preds = %1
  %8 = load ptr, ptr %2, align 8, !tbaa !59
  call void @zend_objects_store_del(ptr noundef %8)
  br label %25

9:                                                ; preds = %1
  %10 = load ptr, ptr %2, align 8, !tbaa !59
  %11 = getelementptr inbounds nuw %struct._zend_refcounted, ptr %10, i32 0, i32 0
  %12 = getelementptr inbounds nuw %struct._zend_refcounted_h, ptr %11, i32 0, i32 1
  %13 = load i32, ptr %12, align 4, !tbaa !26
  %14 = and i32 %13, -1008
  %15 = icmp eq i32 %14, 0
  %16 = xor i1 %15, true
  %17 = xor i1 %16, true
  %18 = zext i1 %17 to i32
  %19 = sext i32 %18 to i64
  %20 = call i64 @llvm.expect.i64(i64 %19, i64 0)
  %21 = icmp ne i64 %20, 0
  br i1 %21, label %22, label %24

22:                                               ; preds = %9
  %23 = load ptr, ptr %2, align 8, !tbaa !59
  call void @gc_possible_root(ptr noundef %23)
  br label %24

24:                                               ; preds = %22, %9
  br label %25

25:                                               ; preds = %24, %7
  ret void
}

; Function Attrs: nounwind uwtable
define internal void @zend_generator_free_storage(ptr noundef %0) #0 {
  %2 = alloca ptr, align 8
  %3 = alloca ptr, align 8
  store ptr %0, ptr %2, align 8, !tbaa !59
  call void @llvm.lifetime.start.p0(i64 8, ptr %3) #11
  %4 = load ptr, ptr %2, align 8, !tbaa !59
  store ptr %4, ptr %3, align 8, !tbaa !4
  %5 = load ptr, ptr %3, align 8, !tbaa !4
  call void @zend_generator_close(ptr noundef %5, i1 noundef zeroext false)
  %6 = load ptr, ptr %3, align 8, !tbaa !4
  %7 = getelementptr inbounds nuw %struct._zend_generator, ptr %6, i32 0, i32 11
  %8 = load ptr, ptr %7, align 8, !tbaa !149
  %9 = icmp ne ptr %8, null
  br i1 %9, label %10, label %23

10:                                               ; preds = %1
  %11 = load ptr, ptr %3, align 8, !tbaa !4
  %12 = getelementptr inbounds nuw %struct._zend_generator, ptr %11, i32 0, i32 11
  %13 = load ptr, ptr %12, align 8, !tbaa !149
  %14 = getelementptr inbounds nuw %struct.anon.9, ptr %13, i32 0, i32 2
  %15 = load i32, ptr %14, align 4, !tbaa !26
  %16 = and i32 %15, 4194304
  %17 = icmp ne i32 %16, 0
  br i1 %17, label %18, label %23

18:                                               ; preds = %10
  %19 = load ptr, ptr %3, align 8, !tbaa !4
  %20 = getelementptr inbounds nuw %struct._zend_generator, ptr %19, i32 0, i32 11
  %21 = load ptr, ptr %20, align 8, !tbaa !149
  %22 = getelementptr inbounds i8, ptr %21, i64 -56
  call void @zend_object_release(ptr noundef %22)
  br label %23

23:                                               ; preds = %18, %10, %1
  %24 = load ptr, ptr %3, align 8, !tbaa !4
  %25 = getelementptr inbounds nuw %struct._zend_generator, ptr %24, i32 0, i32 3
  call void @zval_ptr_dtor(ptr noundef %25)
  %26 = load ptr, ptr %3, align 8, !tbaa !4
  %27 = getelementptr inbounds nuw %struct._zend_generator, ptr %26, i32 0, i32 4
  call void @zval_ptr_dtor(ptr noundef %27)
  %28 = load ptr, ptr %3, align 8, !tbaa !4
  %29 = getelementptr inbounds nuw %struct._zend_generator, ptr %28, i32 0, i32 5
  %30 = call zeroext i8 @zval_get_type(ptr noundef %29)
  %31 = zext i8 %30 to i32
  %32 = icmp eq i32 %31, 0
  %33 = xor i1 %32, true
  %34 = xor i1 %33, true
  %35 = xor i1 %34, true
  %36 = zext i1 %35 to i32
  %37 = sext i32 %36 to i64
  %38 = call i64 @llvm.expect.i64(i64 %37, i64 1)
  %39 = icmp ne i64 %38, 0
  br i1 %39, label %40, label %43

40:                                               ; preds = %23
  %41 = load ptr, ptr %3, align 8, !tbaa !4
  %42 = getelementptr inbounds nuw %struct._zend_generator, ptr %41, i32 0, i32 5
  call void @zval_ptr_dtor(ptr noundef %42)
  br label %43

43:                                               ; preds = %40, %23
  %44 = load ptr, ptr %3, align 8, !tbaa !4
  %45 = getelementptr inbounds nuw %struct._zend_generator, ptr %44, i32 0, i32 9
  %46 = getelementptr inbounds nuw %struct._zend_generator_node, ptr %45, i32 0, i32 1
  %47 = load i32, ptr %46, align 8, !tbaa !109
  %48 = icmp ugt i32 %47, 1
  %49 = xor i1 %48, true
  %50 = xor i1 %49, true
  %51 = zext i1 %50 to i32
  %52 = sext i32 %51 to i64
  %53 = call i64 @llvm.expect.i64(i64 %52, i64 0)
  %54 = icmp ne i64 %53, 0
  br i1 %54, label %55, label %64

55:                                               ; preds = %43
  %56 = load ptr, ptr %3, align 8, !tbaa !4
  %57 = getelementptr inbounds nuw %struct._zend_generator, ptr %56, i32 0, i32 9
  %58 = getelementptr inbounds nuw %struct._zend_generator_node, ptr %57, i32 0, i32 2
  %59 = load ptr, ptr %58, align 8, !tbaa !26
  call void @zend_hash_destroy(ptr noundef %59)
  %60 = load ptr, ptr %3, align 8, !tbaa !4
  %61 = getelementptr inbounds nuw %struct._zend_generator, ptr %60, i32 0, i32 9
  %62 = getelementptr inbounds nuw %struct._zend_generator_node, ptr %61, i32 0, i32 2
  %63 = load ptr, ptr %62, align 8, !tbaa !26
  call void @_efree(ptr noundef %63)
  br label %64

64:                                               ; preds = %55, %43
  %65 = load ptr, ptr %3, align 8, !tbaa !4
  %66 = getelementptr inbounds nuw %struct._zend_generator, ptr %65, i32 0, i32 0
  call void @zend_object_std_dtor(ptr noundef %66)
  call void @llvm.lifetime.end.p0(i64 8, ptr %3) #11
  ret void
}