; Function Attrs: nounwind uwtable
define internal void @zend_generator_free_storage(ptr noundef %0) #0 {
  tail call void @zend_generator_close(ptr noundef %0, i1 noundef zeroext false)
  %2 = getelementptr inbounds nuw i8, ptr %0, i64 264
  %3 = load ptr, ptr %2, align 8, !tbaa !140
  %.not = icmp eq ptr %3, null
  br i1 %.not, label %zend_object_release.exit, label %4

4:                                                ; preds = %1
  %5 = getelementptr inbounds nuw i8, ptr %3, i64 4
  %6 = load i32, ptr %5, align 4, !tbaa !24
  %7 = and i32 %6, 4194304
  %.not13 = icmp eq i32 %7, 0
  br i1 %.not13, label %zend_object_release.exit, label %8

8:                                                ; preds = %4
  %9 = getelementptr inbounds i8, ptr %3, i64 -56
  %10 = load i32, ptr %9, align 4, !tbaa !65
  %11 = icmp ne i32 %10, 0
  tail call void @llvm.assume(i1 %11)
  %12 = add i32 %10, -1
  store i32 %12, ptr %9, align 4, !tbaa !65
  %13 = icmp eq i32 %12, 0
  br i1 %13, label %14, label %15

14:                                               ; preds = %8
  tail call void @zend_objects_store_del(ptr noundef nonnull %9) #11
  br label %zend_object_release.exit

15:                                               ; preds = %8
  %16 = getelementptr inbounds i8, ptr %3, i64 -52
  %17 = load i32, ptr %16, align 4, !tbaa !24
  %18 = and i32 %17, -1008
  %19 = icmp eq i32 %18, 0
  br i1 %19, label %20, label %zend_object_release.exit, !prof !26

20:                                               ; preds = %15
  tail call void @gc_possible_root(ptr noundef nonnull %9) #11
  br label %zend_object_release.exit

zend_object_release.exit:                         ; preds = %20, %15, %14, %4, %1
  %21 = getelementptr inbounds nuw i8, ptr %0, i64 72
  tail call void @zval_ptr_dtor(ptr noundef nonnull %21) #11
  %22 = getelementptr inbounds nuw i8, ptr %0, i64 88
  tail call void @zval_ptr_dtor(ptr noundef nonnull %22) #11
  %23 = getelementptr inbounds nuw i8, ptr %0, i64 112
  %24 = load i8, ptr %23, align 8, !tbaa !24
  %.not14 = icmp eq i8 %24, 0
  br i1 %.not14, label %27, label %25, !prof !26

25:                                               ; preds = %zend_object_release.exit
  %26 = getelementptr inbounds nuw i8, ptr %0, i64 104
  tail call void @zval_ptr_dtor(ptr noundef nonnull %26) #11
  br label %27

27:                                               ; preds = %25, %zend_object_release.exit
  %28 = getelementptr inbounds nuw i8, ptr %0, i64 160
  %29 = load i32, ptr %28, align 8, !tbaa !100
  %30 = icmp ugt i32 %29, 1
  br i1 %30, label %31, label %35, !prof !26

31:                                               ; preds = %27
  %32 = getelementptr inbounds nuw i8, ptr %0, i64 168
  %33 = load ptr, ptr %32, align 8, !tbaa !24
  tail call void @zend_hash_destroy(ptr noundef %33) #11
  %34 = load ptr, ptr %32, align 8, !tbaa !24
  tail call void @_efree(ptr noundef %34) #11
  br label %35

35:                                               ; preds = %31, %27
  tail call void @zend_object_std_dtor(ptr noundef nonnull %0) #11
  ret void
}